; Function Attrs: mustprogress nounwind uwtable
define internal fastcc void @_ZN4ncnnL44gridsample_2d_bicubic_apply_interpolation_p4ERKNS_3MatERS0_S3_RKNS_6OptionE(ptr noundef nonnull align 8 dereferenceable(72) %0, ptr noundef nonnull align 8 dereferenceable(72) %1, ptr noundef nonnull align 8 dereferenceable(72) %2, ptr noundef nonnull readonly align 8 captures(none) dereferenceable(64) %3) unnamed_addr #6 {
  %5 = alloca i32, align 4
  %6 = alloca i32, align 4
  %7 = alloca <4 x float>, align 16
  %8 = alloca <4 x float>, align 16
  %9 = alloca <4 x float>, align 16
  %10 = alloca <4 x float>, align 16
  %11 = alloca <4 x float>, align 16
  %12 = alloca <4 x float>, align 16
  %13 = alloca <4 x float>, align 16
  %14 = alloca <4 x float>, align 16
  %15 = alloca [4 x <4 x float>], align 16
  %16 = tail call i32 @__kmpc_global_thread_num(ptr nonnull @2)
  call void @llvm.lifetime.start.p0(i64 4, ptr nonnull %5) #11
  %17 = getelementptr inbounds nuw i8, ptr %1, i64 56
  %18 = load i32, ptr %17, align 8, !tbaa !16
  store i32 %18, ptr %5, align 4, !tbaa !50
  %19 = getelementptr inbounds nuw i8, ptr %1, i64 44
  %20 = load i32, ptr %19, align 4, !tbaa !25
  %21 = getelementptr inbounds nuw i8, ptr %1, i64 48
  %22 = load i32, ptr %21, align 8, !tbaa !26
  call void @llvm.lifetime.start.p0(i64 4, ptr nonnull %6) #11
  %23 = mul nsw i32 %22, %20
  store i32 %23, ptr %6, align 4, !tbaa !50
  call void @llvm.lifetime.start.p0(i64 16, ptr nonnull %7) #11
  call void @llvm.lifetime.start.p0(i64 16, ptr nonnull %8) #11
  call void @llvm.lifetime.start.p0(i64 16, ptr nonnull %9) #11
  call void @llvm.lifetime.start.p0(i64 16, ptr nonnull %10) #11
  call void @llvm.lifetime.start.p0(i64 16, ptr nonnull %11) #11
  call void @llvm.lifetime.start.p0(i64 16, ptr nonnull %12) #11
  call void @llvm.lifetime.start.p0(i64 16, ptr nonnull %13) #11
  call void @llvm.lifetime.start.p0(i64 16, ptr nonnull %14) #11
  call void @llvm.lifetime.start.p0(i64 64, ptr nonnull %15) #11
  %24 = getelementptr inbounds nuw i8, ptr %3, i64 4
  %25 = load i32, ptr %24, align 4, !tbaa !51
  tail call void @__kmpc_push_num_threads(ptr nonnull @2, i32 %16, i32 %25)
  call void (ptr, i32, ptr, ...) @__kmpc_fork_call(ptr nonnull @2, i32 14, ptr nonnull @_ZN4ncnnL44gridsample_2d_bicubic_apply_interpolation_p4ERKNS_3MatERS0_S3_RKNS_6OptionE.omp_outlined, ptr nonnull %5, ptr nonnull %0, ptr nonnull %1, ptr nonnull %2, ptr nonnull %6, ptr nonnull %7, ptr nonnull %8, ptr nonnull %9, ptr nonnull %10, ptr nonnull %11, ptr nonnull %12, ptr nonnull %13, ptr nonnull %14, ptr nonnull %15)
  call void @llvm.lifetime.end.p0(i64 64, ptr nonnull %15) #11
  call void @llvm.lifetime.end.p0(i64 16, ptr nonnull %14) #11
  call void @llvm.lifetime.end.p0(i64 16, ptr nonnull %13) #11
  call void @llvm.lifetime.end.p0(i64 16, ptr nonnull %12) #11
  call void @llvm.lifetime.end.p0(i64 16, ptr nonnull %11) #11
  call void @llvm.lifetime.end.p0(i64 16, ptr nonnull %10) #11
  call void @llvm.lifetime.end.p0(i64 16, ptr nonnull %9) #11
  call void @llvm.lifetime.end.p0(i64 16, ptr nonnull %8) #11
  call void @llvm.lifetime.end.p0(i64 16, ptr nonnull %7) #11
  call void @llvm.lifetime.end.p0(i64 4, ptr nonnull %6) #11
  call void @llvm.lifetime.end.p0(i64 4, ptr nonnull %5) #11
  ret void
}